; Function Attrs: mustprogress uwtable
define void @_ZN7rocksdb10Checkpoint6CreateEPNS_2DBEPPS0_(ptr dead_on_unwind noalias writable writeonly sret(%"class.rocksdb::Status") align 8 captures(none) initializes((0, 6), (8, 16)) %0, ptr noundef %1, ptr noundef writeonly captures(none) initializes((0, 8)) %2) local_unnamed_addr #4 align 2 personality ptr @__gxx_personality_v0 {
  %4 = tail call noalias noundef nonnull dereferenceable(16) ptr @_Znwm(i64 noundef 16) #24
  store ptr getelementptr inbounds nuw inrange(-16, 32) (i8, ptr @_ZTVN7rocksdb14CheckpointImplE, i64 16), ptr %4, align 8, !tbaa !18
  %5 = getelementptr inbounds nuw i8, ptr %4, i64 8
  store ptr %1, ptr %5, align 8, !tbaa !20
  store ptr %4, ptr %2, align 8, !tbaa !24
  %6 = getelementptr inbounds nuw i8, ptr %0, i64 8
  store ptr null, ptr %6, align 8, !tbaa !26, !alias.scope !28
  tail call void @llvm.memset.p0.i64(ptr noundef nonnull align 8 dereferenceable(16) %0, i8 0, i64 6, i1 false), !alias.scope !28
  ret void
}